target datalayout = "e-m:e-p270:32:32-p271:32:32-p272:64:64-i64:64-i128:128-f80:128-n8:16:32:64-S128"
target triple = "x86_64-pc-linux-gnu"

%class.QString = type { %struct.QArrayDataPointer }
%struct.QArrayDataPointer = type { ptr, ptr, i64 }
%class.TapParameterDialog = type { %class.WiresharkDialog.base, ptr, %class.QMenu, %class.QList.1, i32, ptr }
%class.WiresharkDialog.base = type <{ %class.GeometryStateDialog, ptr, i8, [7 x i8], %class.QString, %class.QList, i32, i8 }>
%class.GeometryStateDialog = type { %class.QDialog, %class.QString, ptr }
%class.QDialog = type { %class.QWidget }
%class.QWidget = type { %class.QObject, %class.QPaintDevice.base, ptr }
%class.QObject = type { ptr, %class.QScopedPointer }
%class.QScopedPointer = type { ptr }
%class.QPaintDevice.base = type <{ ptr, i16 }>
%class.QList = type { %struct.QArrayDataPointer.0 }
%struct.QArrayDataPointer.0 = type { ptr, ptr, i64 }
%class.QMenu = type { %class.QWidget }
%class.QList.1 = type { %struct.QArrayDataPointer.4 }
%struct.QArrayDataPointer.4 = type { ptr, ptr, i64 }

@mainApp = external global ptr, align 8

; Function Attrs: mustprogress null_pointer_is_valid sspstrong uwtable
define void @_ZN18TapParameterDialog26on_buttonBox_helpRequestedEv(ptr noundef align 8 dereferenceable_or_null(232) %0) #5 align 2 {
  %2 = alloca ptr, align 8
  store ptr %0, ptr %2, align 8
  %3 = load ptr, ptr %2, align 8
  %4 = getelementptr inbounds nuw %class.TapParameterDialog, ptr %3, i32 0, i32 4
  %5 = load i32, ptr %4, align 8
  %6 = icmp sgt i32 %5, 0
  br i1 %6, label %7, label %11

7:                                                ; preds = %1
  %8 = load ptr, ptr @mainApp, align 8
  %9 = getelementptr inbounds nuw %class.TapParameterDialog, ptr %3, i32 0, i32 4
  %10 = load i32, ptr %9, align 8
  call void @_ZN15MainApplication15helpTopicActionE14topic_action_e(ptr noundef align 8 dereferenceable_or_null(216) %8, i32 noundef %10)
  br label %11

11:                                               ; preds = %7, %1
  ret void
}